; Function Attrs: nounwind uwtable
define ptr @l_Lean_Compiler_LCNF_normLetValue___rarg(i8 noundef zeroext %0, ptr noundef %1, ptr noundef %2, ptr noundef %3) local_unnamed_addr #2 {
  %5 = getelementptr inbounds nuw i8, ptr %2, i64 16
  %6 = load ptr, ptr %5, align 8, !tbaa !4
  %7 = ptrtoint ptr %6 to i64
  %8 = and i64 %7, 1
  %.not = icmp eq i64 %8, 0
  br i1 %.not, label %9, label %lean_inc.exit

9:                                                ; preds = %4
  %.val.i = load i32, ptr %6, align 4, !tbaa !8
  %10 = icmp sgt i32 %.val.i, 0
  br i1 %10, label %11, label %13, !prof !11

11:                                               ; preds = %9
  %12 = add nuw i32 %.val.i, 1
  store i32 %12, ptr %6, align 4, !tbaa !8
  br label %lean_inc.exit

13:                                               ; preds = %9
  %.not.i = icmp eq i32 %.val.i, 0
  br i1 %.not.i, label %lean_inc.exit, label %14

14:                                               ; preds = %13
  tail call void @lean_inc_ref_cold(ptr noundef nonnull %6) #6
  br label %lean_inc.exit

lean_inc.exit:                                    ; preds = %14, %13, %11, %4
  tail call void @lean_inc_heartbeat() #6
  %15 = tail call noalias ptr @mi_malloc_small(i64 noundef 48) #6
  %16 = icmp eq ptr %15, null
  br i1 %16, label %17, label %lean_alloc_closure.exit

17:                                               ; preds = %lean_inc.exit
  tail call void @lean_internal_panic_out_of_memory() #7
  unreachable

lean_alloc_closure.exit:                          ; preds = %lean_inc.exit
  %18 = zext i8 %0 to i64
  %19 = shl nuw nsw i64 %18, 1
  %20 = or disjoint i64 %19, 1
  %21 = inttoptr i64 %20 to ptr
  %22 = getelementptr inbounds nuw i8, ptr %15, i64 4
  store i32 1, ptr %15, align 4, !tbaa !8
  store i32 -184549328, ptr %22, align 4
  %23 = getelementptr inbounds nuw i8, ptr %15, i64 8
  store ptr @l_Lean_Compiler_LCNF_normLetValue___rarg___lambda__1___boxed, ptr %23, align 8, !tbaa !4
  %24 = getelementptr inbounds nuw i8, ptr %15, i64 16
  store i16 4, ptr %24, align 8, !tbaa !12
  %25 = getelementptr inbounds nuw i8, ptr %15, i64 18
  store i16 3, ptr %25, align 2, !tbaa !12
  %26 = getelementptr inbounds nuw i8, ptr %15, i64 24
  store ptr %2, ptr %26, align 8, !tbaa !4
  %27 = getelementptr inbounds nuw i8, ptr %15, i64 32
  store ptr %3, ptr %27, align 8, !tbaa !4
  %28 = getelementptr inbounds nuw i8, ptr %15, i64 40
  store ptr %21, ptr %28, align 8, !tbaa !4
  %29 = tail call ptr @lean_apply_4(ptr noundef %6, ptr noundef nonnull inttoptr (i64 1 to ptr), ptr noundef nonnull inttoptr (i64 1 to ptr), ptr noundef %1, ptr noundef nonnull %15) #6
  ret ptr %29
}